target datalayout = "e-m:e-p270:32:32-p271:32:32-p272:64:64-i64:64-i128:128-f80:128-n8:16:32:64-S128"
target triple = "x86_64-pc-linux-gnu"

%"class.std::__shared_count" = type { ptr }
%"class.std::shared_ptr.6" = type { %"class.std::__shared_ptr.7" }
%"class.std::__shared_ptr.7" = type { ptr, %"class.std::__shared_count" }
%"class.std::shared_ptr.3" = type { %"class.std::__shared_ptr.4" }
%"class.std::__shared_ptr.4" = type { ptr, %"class.std::__shared_count" }
%"class.rocksdb::CacheWrapper" = type { %"class.rocksdb::Cache", %"class.std::shared_ptr.3" }
%"class.rocksdb::Cache" = type { %"class.rocksdb::Customizable", %"class.std::shared_ptr.6", %"class.std::function" }
%"class.rocksdb::Customizable" = type { %"class.rocksdb::Configurable" }
%"class.rocksdb::Configurable" = type { ptr, %"class.std::vector.15" }
%"class.std::vector.15" = type { %"struct.std::_Vector_base.16" }
%"struct.std::_Vector_base.16" = type { %"struct.std::_Vector_base<rocksdb::Configurable::RegisteredOptions, std::allocator<rocksdb::Configurable::RegisteredOptions>>::_Vector_impl" }
%"struct.std::_Vector_base<rocksdb::Configurable::RegisteredOptions, std::allocator<rocksdb::Configurable::RegisteredOptions>>::_Vector_impl" = type { %"struct.std::_Vector_base<rocksdb::Configurable::RegisteredOptions, std::allocator<rocksdb::Configurable::RegisteredOptions>>::_Vector_impl_data" }
%"struct.std::_Vector_base<rocksdb::Configurable::RegisteredOptions, std::allocator<rocksdb::Configurable::RegisteredOptions>>::_Vector_impl_data" = type { ptr, ptr, ptr }
%"class.std::function" = type { %"class.std::_Function_base", ptr }
%"class.std::_Function_base" = type { %"union.std::_Any_data", ptr }
%"union.std::_Any_data" = type { %"union.std::_Nocopy_types" }
%"union.std::_Nocopy_types" = type { { i64, i64 } }

; Function Attrs: mustprogress nounwind uwtable
define linkonce_odr noundef ptr @_ZNKSt12__shared_ptrIN7rocksdb5CacheELN9__gnu_cxx12_Lock_policyE2EE3getEv(ptr noundef nonnull align 8 dereferenceable(16) %0) #3 comdat align 2 {
  %2 = alloca ptr, align 8
  store ptr %0, ptr %2, align 8, !tbaa !77
  %3 = load ptr, ptr %2, align 8
  %4 = getelementptr inbounds nuw %"class.std::__shared_ptr.4", ptr %3, i32 0, i32 0
  %5 = load ptr, ptr %4, align 8, !tbaa !130
  ret ptr %5
}

; Function Attrs: mustprogress nounwind uwtable
define linkonce_odr noundef ptr @_ZNKSt19__shared_ptr_accessIN7rocksdb5CacheELN9__gnu_cxx12_Lock_policyE2ELb0ELb0EE6_M_getEv(ptr noundef nonnull align 1 dereferenceable(1) %0) #3 comdat align 2 {
  %2 = alloca ptr, align 8
  store ptr %0, ptr %2, align 8, !tbaa !280
  %3 = load ptr, ptr %2, align 8
  %4 = call noundef ptr @_ZNKSt12__shared_ptrIN7rocksdb5CacheELN9__gnu_cxx12_Lock_policyE2EE3getEv(ptr noundef nonnull align 8 dereferenceable(16) %3) #4
  ret ptr %4
}

; Function Attrs: mustprogress nounwind uwtable
define linkonce_odr noundef ptr @_ZNKSt19__shared_ptr_accessIN7rocksdb5CacheELN9__gnu_cxx12_Lock_policyE2ELb0ELb0EEptEv(ptr noundef nonnull align 1 dereferenceable(1) %0) #3 comdat align 2 {
  %2 = alloca ptr, align 8
  store ptr %0, ptr %2, align 8, !tbaa !280
  %3 = load ptr, ptr %2, align 8
  %4 = call noundef ptr @_ZNKSt19__shared_ptr_accessIN7rocksdb5CacheELN9__gnu_cxx12_Lock_policyE2ELb0ELb0EE6_M_getEv(ptr noundef nonnull align 1 dereferenceable(1) %3) #4
  ret ptr %4
}

; Function Attrs: mustprogress nounwind uwtable
define linkonce_odr noundef zeroext i1 @_ZNKSt12__shared_ptrIN7rocksdb5CacheELN9__gnu_cxx12_Lock_policyE2EEcvbEv(ptr noundef nonnull align 8 dereferenceable(16) %0) #3 comdat align 2 {
  %2 = alloca ptr, align 8
  store ptr %0, ptr %2, align 8, !tbaa !77
  %3 = load ptr, ptr %2, align 8
  %4 = getelementptr inbounds nuw %"class.std::__shared_ptr.4", ptr %3, i32 0, i32 0
  %5 = load ptr, ptr %4, align 8, !tbaa !130
  %6 = icmp ne ptr %5, null
  ret i1 %6
}

; Function Attrs: mustprogress uwtable
define internal noundef ptr @_ZN7rocksdb12_GLOBAL__N_112SimCacheImpl6LookupERKNS_5SliceEPKNS_5Cache15CacheItemHelperEPNS5_13CreateContextENS5_8PriorityEPNS_10StatisticsE(ptr noundef nonnull align 8 dereferenceable(216) %0, ptr noundef nonnull align 8 dereferenceable(16) %1, ptr noundef %2, ptr noundef %3, i32 noundef %4, ptr noundef %5) unnamed_addr #5 align 2 {
  %7 = alloca ptr, align 8
  %8 = alloca ptr, align 8
  %9 = alloca ptr, align 8
  %10 = alloca ptr, align 8
  %11 = alloca ptr, align 8
  %12 = alloca i32, align 4
  %13 = alloca ptr, align 8
  store ptr %0, ptr %8, align 8, !tbaa !159
  store ptr %1, ptr %9, align 8, !tbaa !148
  store ptr %2, ptr %10, align 8, !tbaa !222
  store ptr %3, ptr %11, align 8, !tbaa !234
  store i32 %4, ptr %12, align 4, !tbaa !226
  store ptr %5, ptr %13, align 8, !tbaa !236
  %14 = load ptr, ptr %8, align 8
  %15 = load ptr, ptr %9, align 8, !tbaa !148
  %16 = load ptr, ptr %13, align 8, !tbaa !236
  call void @_ZN7rocksdb12_GLOBAL__N_112SimCacheImpl12HandleLookupERKNS_5SliceEPNS_10StatisticsE(ptr noundef nonnull align 8 dereferenceable(216) %14, ptr noundef nonnull align 8 dereferenceable(16) %15, ptr noundef %16)
  %17 = getelementptr inbounds nuw %"class.rocksdb::CacheWrapper", ptr %14, i32 0, i32 1
  %18 = call noundef zeroext i1 @_ZNKSt12__shared_ptrIN7rocksdb5CacheELN9__gnu_cxx12_Lock_policyE2EEcvbEv(ptr noundef nonnull align 8 dereferenceable(16) %17) #4
  br i1 %18, label %20, label %19

19:                                               ; preds = %6
  store ptr null, ptr %7, align 8
  br label %32

20:                                               ; preds = %6
  %21 = getelementptr inbounds nuw %"class.rocksdb::CacheWrapper", ptr %14, i32 0, i32 1
  %22 = call noundef ptr @_ZNKSt19__shared_ptr_accessIN7rocksdb5CacheELN9__gnu_cxx12_Lock_policyE2ELb0ELb0EEptEv(ptr noundef nonnull align 1 dereferenceable(1) %21) #4
  %23 = load ptr, ptr %9, align 8, !tbaa !148
  %24 = load ptr, ptr %10, align 8, !tbaa !222
  %25 = load ptr, ptr %11, align 8, !tbaa !234
  %26 = load i32, ptr %12, align 4, !tbaa !226
  %27 = load ptr, ptr %13, align 8, !tbaa !236
  %28 = load ptr, ptr %22, align 8, !tbaa !67
  %29 = getelementptr inbounds ptr, ptr %28, i64 21
  %30 = load ptr, ptr %29, align 8
  %31 = call noundef ptr %30(ptr noundef nonnull align 8 dereferenceable(80) %22, ptr noundef nonnull align 8 dereferenceable(16) %23, ptr noundef %24, ptr noundef %25, i32 noundef %26, ptr noundef %27)
  store ptr %31, ptr %7, align 8
  br label %32

32:                                               ; preds = %20, %19
  %33 = load ptr, ptr %7, align 8
  ret ptr %33
}