; Function Attrs: mustprogress uwtable
define internal noundef ptr @_ZN7rocksdb12_GLOBAL__N_112SimCacheImpl6LookupERKNS_5SliceEPKNS_5Cache15CacheItemHelperEPNS5_13CreateContextENS5_8PriorityEPNS_10StatisticsE(ptr noundef nonnull align 8 dereferenceable(216) %0, ptr noundef nonnull align 8 dereferenceable(16) %1, ptr noundef %2, ptr noundef %3, i32 noundef %4, ptr noundef %5) unnamed_addr #4 align 2 {
  tail call fastcc void @_ZN7rocksdb12_GLOBAL__N_112SimCacheImpl12HandleLookupERKNS_5SliceEPNS_10StatisticsE(ptr noundef nonnull align 8 dereferenceable(216) %0, ptr noundef nonnull align 8 dereferenceable(16) %1, ptr noundef %5)
  %7 = getelementptr inbounds nuw i8, ptr %0, i64 80
  %8 = load ptr, ptr %7, align 8, !tbaa !45
  %.not = icmp eq ptr %8, null
  br i1 %.not, label %14, label %9

9:                                                ; preds = %6
  %10 = load ptr, ptr %8, align 8, !tbaa !32
  %11 = getelementptr inbounds nuw i8, ptr %10, i64 168
  %12 = load ptr, ptr %11, align 8
  %13 = tail call noundef ptr %12(ptr noundef nonnull align 8 dereferenceable(80) %8, ptr noundef nonnull align 8 dereferenceable(16) %1, ptr noundef %2, ptr noundef %3, i32 noundef %4, ptr noundef %5)
  br label %14

14:                                               ; preds = %6, %9
  %.0 = phi ptr [ %13, %9 ], [ null, %6 ]
  ret ptr %.0
}